; Function Attrs: mustprogress nofree norecurse nosync nounwind willreturn memory(write, argmem: readwrite, inaccessiblemem: none) uwtable
define void @_ZN6icu_757UVector12setElementAtEii(ptr nocapture noundef nonnull readonly align 8 dereferenceable(40) %this, i32 noundef %elem, i32 noundef %index) local_unnamed_addr #7 align 2 {
entry:
  %cmp = icmp sgt i32 %index, -1
  %count = getelementptr inbounds i8, ptr %this, i64 8
  %0 = load i32, ptr %count, align 8
  %cmp2 = icmp sgt i32 %0, %index
  %or.cond = select i1 %cmp, i1 %cmp2, i1 false
  br i1 %or.cond, label %if.then, label %if.end

if.then:                                          ; preds = %entry
  %elements = getelementptr inbounds i8, ptr %this, i64 16
  %1 = load ptr, ptr %elements, align 8
  %idxprom = zext nneg i32 %index to i64
  %arrayidx = getelementptr inbounds %union.UElement, ptr %1, i64 %idxprom
  store ptr null, ptr %arrayidx, align 8
  %2 = load ptr, ptr %elements, align 8
  %arrayidx5 = getelementptr inbounds %union.UElement, ptr %2, i64 %idxprom
  store i32 %elem, ptr %arrayidx5, align 8
  br label %if.end

if.end:                                           ; preds = %if.then, %entry
  ret void
}